	.file	"Bezier2D.c"
	.intel_syntax noprefix
	.text
.Ltext0:
	.p2align 4,,15
	.type	Cleanup, @function
Cleanup:
.LFB571:
	.file 1 "Bezier2D.c"
	.loc 1 97 0
	.cfi_startproc
.LVL0:
	push	rbx
	.cfi_def_cfa_offset 16
	.cfi_offset 3, -16
	.loc 1 97 0
	mov	rbx, rdi
	.loc 1 98 0
	mov	rdi, QWORD PTR [rdi+24]
.LVL1:
	test	rdi, rdi
	je	.L2
	.loc 1 98 0 is_stmt 0 discriminator 1
	call	SDL_DestroyTexture
.LVL2:
.L2:
	.loc 1 99 0 is_stmt 1
	mov	rdi, QWORD PTR [rbx+8]
	test	rdi, rdi
	je	.L3
	.loc 1 99 0 is_stmt 0 discriminator 1
	call	SDL_DestroyRenderer
.LVL3:
.L3:
	.loc 1 100 0 is_stmt 1
	mov	rdi, QWORD PTR [rbx]
	test	rdi, rdi
	je	.L4
	.loc 1 100 0 is_stmt 0 discriminator 1
	call	SDL_DestroyWindow
.LVL4:
.L4:
	.loc 1 102 0 is_stmt 1
	pop	rbx
	.cfi_def_cfa_offset 8
.LVL5:
	.loc 1 101 0
	jmp	SDL_Quit
.LVL6:
	.cfi_endproc
.LFE571:
	.size	Cleanup, .-Cleanup
	.section	.rodata.str1.1,"aMS",@progbits,1
.LC5:
	.string	"(missing code)"
.LC6:
	.string	"(missing message)"
.LC7:
	.string	"(missing function name)"
.LC8:
	.string	"(missing file name)"
.LC9:
	.string	"SDL_Init(SDL_INIT_VIDEO)"
.LC10:
	.string	"Bezier2D.c"
.LC11:
	.string	"Splines 2D"
.LC12:
	.string	"win"
.LC13:
	.string	"rend"
.LC14:
	.string	"tex"
	.section	.rodata.str1.8,"aMS",@progbits,1
	.align 8
.LC15:
	.string	"SDL_LockTexture(s->texture, 0, &s->pixels, &s->pitch)"
	.align 8
.LC17:
	.string	"SDL_RenderCopy(vid->rend, s->texture, 0, 0)"
	.align 8
.LC18:
	.string	"Couldn't get error information.\n"
	.align 8
.LC19:
	.string	"Error! Aborting program.\nBread Crumbs:\n=============\n"
	.section	.rodata.str1.1
.LC20:
	.string	"\t%s: L%d: %s: %s\n\t\t%s\n"
	.section	.rodata.str1.8
	.align 8
.LC21:
	.string	"Init(&video, \"Splines 2D\", DEFAULT_WIDTH, DEFAULT_HEIGHT)"
	.section	.rodata.str1.1
.LC22:
	.string	"DrawLoop(&video)"
	.section	.text.startup,"ax",@progbits
	.p2align 4,,15
	.globl	main
	.type	main, @function
main:
.LFB583:
	.loc 1 458 0
	.cfi_startproc
.LVL7:
	push	r15
	.cfi_def_cfa_offset 16
	.cfi_offset 15, -16
	.loc 1 462 0
	mov	ecx, 7
	.loc 1 458 0
	push	r14
	.cfi_def_cfa_offset 24
	.cfi_offset 14, -24
	push	r13
	.cfi_def_cfa_offset 32
	.cfi_offset 13, -32
	push	r12
	.cfi_def_cfa_offset 40
	.cfi_offset 12, -40
	push	rbp
	.cfi_def_cfa_offset 48
	.cfi_offset 6, -48
	push	rbx
	.cfi_def_cfa_offset 56
	.cfi_offset 3, -56
	sub	rsp, 232
	.cfi_def_cfa_offset 288
	.loc 1 458 0
	mov	rax, QWORD PTR fs:40
	mov	QWORD PTR [rsp+216], rax
	xor	eax, eax
	.loc 1 462 0
	lea	rdi, [rsp+96]
.LVL8:
	rep stosq
.LVL9:
.LBB179:
.LBB180:
.LBB181:
	.loc 1 69 0
	mov	edi, 32
	call	SDL_Init
.LVL10:
	test	eax, eax
	js	.L95
.LBE181:
	.loc 1 71 0
	mov	r9d, 4
	mov	ecx, 640
	mov	edx, 536805376
	mov	r8d, 480
	mov	esi, 536805376
	mov	edi, OFFSET FLAT:.LC11
	call	SDL_CreateWindow
.LVL11:
	.loc 1 74 0
	test	rax, rax
	je	.L96
	.loc 1 78 0
	mov	edx, 6
	mov	esi, -1
	mov	rdi, rax
	.loc 1 75 0
	mov	QWORD PTR [rsp+96], rax
	.loc 1 76 0
	mov	QWORD PTR [rsp+112], OFFSET FLAT:.LC11
	.loc 1 78 0
	call	SDL_CreateRenderer
.LVL12:
	.loc 1 81 0
	test	rax, rax
	je	.L97
	.loc 1 84 0
	mov	r8d, 480
	mov	ecx, 640
	mov	edx, 1
	mov	esi, 370546692
	mov	rdi, rax
	.loc 1 82 0
	mov	QWORD PTR [rsp+104], rax
	.loc 1 84 0
	call	SDL_CreateTexture
.LVL13:
	.loc 1 87 0
	test	rax, rax
	je	.L98
	.loc 1 88 0
	mov	QWORD PTR [rsp+120], rax
	lea	rax, [rsp+100]
.LVL14:
	.loc 1 90 0
	mov	DWORD PTR [rsp+128], 640
	.loc 1 91 0
	mov	DWORD PTR [rsp+132], 480
	mov	QWORD PTR [rsp+56], rax
.LVL15:
.L22:
.LBE180:
.LBE179:
.LBB186:
.LBB187:
	.loc 1 410 0
	lea	rdi, [rsp+160]
	call	SDL_PollEvent
.LVL16:
	test	eax, eax
	je	.L99
	.loc 1 411 0
	cmp	DWORD PTR [rsp+160], 256
	jne	.L22
.LBE187:
.LBE186:
	.loc 1 466 0
	lea	rdi, [rsp+96]
.LVL17:
	call	Cleanup
.LVL18:
	.loc 1 467 0
	xor	eax, eax
.LVL19:
.L62:
	.loc 1 473 0
	mov	rbx, QWORD PTR [rsp+216]
	xor	rbx, QWORD PTR fs:40
	jne	.L100
	add	rsp, 232
	.cfi_remember_state
	.cfi_def_cfa_offset 56
	pop	rbx
	.cfi_def_cfa_offset 48
	pop	rbp
	.cfi_def_cfa_offset 40
.LVL20:
	pop	r12
	.cfi_def_cfa_offset 32
	pop	r13
	.cfi_def_cfa_offset 24
	pop	r14
	.cfi_def_cfa_offset 16
	pop	r15
	.cfi_def_cfa_offset 8
	ret
.L99:
	.cfi_restore_state
.LBB319:
.LBB317:
.LBB188:
	.loc 1 415 0
	mov	rdi, QWORD PTR [rsp+120]
	lea	rcx, [rsp+136]
	xor	esi, esi
	lea	rdx, [rsp+144]
	call	SDL_LockTexture
.LVL21:
	test	eax, eax
	js	.L25
.LVL22:
.LBE188:
.LBB189:
.LBB190:
	.loc 1 116 0
	mov	r10d, DWORD PTR [rsp+132]
	test	r10d, r10d
	jle	.L26
	xor	esi, esi
.LVL23:
	.p2align 4,,10
	.p2align 3
.L27:
.LBB191:
	.loc 1 117 0
	mov	r9d, DWORD PTR [rsp+128]
	test	r9d, r9d
	jle	.L30
	xor	ecx, ecx
	xor	edx, edx
.LVL24:
	.p2align 4,,10
	.p2align 3
.L31:
.LBB192:
.LBB193:
.LBB194:
.LBB195:
	.loc 1 106 0
	mov	eax, DWORD PTR [rsp+136]
.LBE195:
.LBE194:
.LBE193:
.LBE192:
	.loc 1 117 0
	add	edx, 1
.LVL25:
.LBB199:
.LBB198:
.LBB197:
.LBB196:
	.loc 1 106 0
	imul	eax, esi
	cdqe
.LBE196:
.LBE197:
.LBE198:
.LBE199:
	.loc 1 118 0
	add	rax, QWORD PTR [rsp+144]
	mov	DWORD PTR [rax+rcx], 16777215
	add	rcx, 4
	.loc 1 117 0
	cmp	edx, DWORD PTR [rsp+128]
	jl	.L31
.LVL26:
.L30:
.LBE191:
	.loc 1 116 0
	add	esi, 1
.LVL27:
	cmp	esi, DWORD PTR [rsp+132]
	jl	.L27
.LVL28:
.L26:
	vmovss	xmm10, DWORD PTR .LC1[rip]
.LBE190:
.LBE189:
.LBB200:
.LBB201:
.LBB202:
.LBB203:
	.loc 1 320 0
	mov	ebp, 0x42200000
.LBE203:
.LBE202:
	.loc 1 382 0
	mov	DWORD PTR [rsp+64], 40
	mov	DWORD PTR [rsp+68], 40
.LBB286:
.LBB281:
	.loc 1 321 0
	mov	r13d, ebp
	vxorps	xmm12, xmm12, xmm12
	vmovss	xmm8, DWORD PTR .LC3[rip]
.LBE281:
.LBE286:
	.loc 1 382 0
	mov	DWORD PTR [rsp+72], 50
.LBB287:
.LBB282:
.LBB204:
.LBB205:
	.loc 1 327 0
	vmovaps	xmm13, xmm10
.LBE205:
.LBE204:
.LBE282:
.LBE287:
	.loc 1 382 0
	mov	DWORD PTR [rsp+76], 100
	mov	DWORD PTR [rsp+80], 240
	mov	DWORD PTR [rsp+84], 30
	mov	DWORD PTR [rsp+88], 280
	mov	DWORD PTR [rsp+92], 60
.LVL29:
.LBB288:
.LBB283:
.LBB278:
	.loc 1 323 0
	mov	DWORD PTR [rsp+28], 1
	.p2align 4,,10
	.p2align 3
.L49:
.LVL30:
.LBB274:
	.loc 1 324 0
	vcvtsi2ss	xmm9, xmm9, DWORD PTR [rsp+28]
	.loc 1 327 0
	vmovaps	xmm11, xmm13
	.loc 1 324 0
	vmulss	xmm9, xmm9, DWORD PTR .LC16[rip]
.LVL31:
	.loc 1 326 0
	vsubss	xmm0, xmm10, xmm9
.LVL32:
	.loc 1 327 0
	vucomiss	xmm0, xmm12
	jbe	.L32
	vdivss	xmm11, xmm10, xmm0
.L32:
	.loc 1 335 0
	vmovss	xmm1, DWORD PTR .LC2[rip]
	vmovss	DWORD PTR [rsp+52], xmm13
	vmovss	DWORD PTR [rsp+48], xmm12
	vmovss	DWORD PTR [rsp+44], xmm8
	vmovss	DWORD PTR [rsp+40], xmm10
	vmovss	DWORD PTR [rsp+36], xmm11
	vmovss	DWORD PTR [rsp+32], xmm9
.LVL33:
	call	powf
.LVL34:
	.loc 1 334 0
	vmovss	xmm13, DWORD PTR [rsp+52]
	.loc 1 335 0
	lea	rsi, [rsp+64]
.LVL35:
	.loc 1 330 0
	vmovss	xmm12, DWORD PTR [rsp+48]
	.loc 1 335 0
	mov	eax, 40
	mov	edi, 40
	.loc 1 333 0
	vmovss	xmm8, DWORD PTR [rsp+44]
	.loc 1 338 0
	xor	edx, edx
	.loc 1 334 0
	vmovaps	xmm4, xmm13
	.loc 1 336 0
	vmovss	xmm5, DWORD PTR .LC2[rip]
	.loc 1 332 0
	vmovaps	xmm2, xmm13
	.loc 1 330 0
	vmovaps	xmm7, xmm12
	.loc 1 333 0
	vmovaps	xmm3, xmm8
	.loc 1 329 0
	vmovaps	xmm6, xmm12
	vmovss	xmm9, DWORD PTR [rsp+32]
	vmovss	xmm11, DWORD PTR [rsp+36]
	vmovss	xmm10, DWORD PTR [rsp+40]
	jmp	.L34
.LVL36:
	.p2align 4,,10
	.p2align 3
.L101:
.LBB206:
	.loc 1 357 0
	vcvtsi2ss	xmm1, xmm1, edx
	.loc 1 358 0
	vdivss	xmm3, xmm3, xmm5
.LVL37:
	.loc 1 361 0
	cmp	edx, 3
	.loc 1 359 0
	vsubss	xmm5, xmm5, xmm10
.LVL38:
	.loc 1 360 0
	vmulss	xmm4, xmm4, xmm9
.LVL39:
	.loc 1 357 0
	vmulss	xmm2, xmm2, xmm1
.LVL40:
	.loc 1 361 0
	je	.L72
	vmulss	xmm0, xmm0, xmm11
.LVL41:
.L36:
	mov	edi, DWORD PTR [rsi+8]
	add	rsi, 8
	mov	eax, DWORD PTR [rsi+4]
.LVL42:
.L34:
	.loc 1 345 0
	vmulss	xmm1, xmm2, xmm3
	.loc 1 349 0
	vcvtsi2ss	xmm14, xmm14, edi
	.loc 1 352 0
	add	edx, 1
.LVL43:
	.loc 1 353 0
	cmp	edx, 4
	.loc 1 345 0
	vdivss	xmm1, xmm8, xmm1
	vmulss	xmm1, xmm1, xmm4
	vmulss	xmm1, xmm1, xmm0
.LVL44:
	.loc 1 349 0
	vmulss	xmm14, xmm1, xmm14
	vaddss	xmm6, xmm6, xmm14
.LVL45:
	.loc 1 350 0
	vcvtsi2ss	xmm14, xmm14, eax
	vmulss	xmm1, xmm1, xmm14
.LVL46:
	vaddss	xmm7, xmm7, xmm1
.LVL47:
	.loc 1 353 0
	jne	.L101
.LBE206:
	.loc 1 370 0
	vcvttss2si	edx, xmm7
.LVL48:
	vmovd	xmm5, r13d
.LVL49:
	vmovd	xmm2, ebp
.LVL50:
	vcvttss2si	r12d, xmm6
.LBB207:
.LBB208:
	.loc 1 170 0
	mov	r10d, 1
.LBE208:
.LBE207:
	.loc 1 370 0
	vcvttss2si	ecx, xmm5
	vcvttss2si	eax, xmm2
.LVL51:
.LBB269:
.LBB266:
	.loc 1 168 0
	mov	ebx, edx
	.loc 1 174 0
	mov	r15d, r12d
	.loc 1 168 0
	sub	ebx, ecx
.LVL52:
	.loc 1 174 0
	sub	r15d, eax
.LVL53:
	js	.L102
.LVL54:
.L37:
	.loc 1 183 0
	test	ebx, ebx
	.loc 1 171 0
	mov	r11d, 1
	.loc 1 183 0
	js	.L103
.LVL55:
.L38:
	.loc 1 196 0
	cmp	r15d, ebx
	jg	.L39
.LVL56:
	.loc 1 214 0
	xchg	ecx, eax
.LVL57:
	.loc 1 222 0
	xchg	r11d, r10d
.LVL58:
	.loc 1 216 0
	xor	r12d, edx
.LVL59:
	.loc 1 274 0
	mov	esi, eax
.LBB209:
.LBB210:
	.loc 1 130 0
	mov	r8, QWORD PTR [rsp+144]
.LBE210:
.LBE209:
	.loc 1 217 0
	xor	edx, r12d
.LVL60:
	.loc 1 274 0
	imul	esi, r10d
	.loc 1 218 0
	xor	r12d, edx
.LVL61:
	.loc 1 227 0
	sub	edx, ecx
.LVL62:
	.loc 1 271 0
	lea	ebx, [rdx+rdx]
	.loc 1 226 0
	mov	r15d, r12d
.LVL63:
	.loc 1 224 0
	mov	ebp, -1
.LVL64:
	.loc 1 226 0
	sub	r15d, eax
.LVL65:
	.loc 1 271 0
	mov	edx, ebx
.LBB224:
.LBB221:
.LBB211:
.LBB212:
.LBB213:
.LBB214:
	.loc 1 106 0
	imul	esi, DWORD PTR [rsp+136]
.LBE214:
.LBE213:
.LBE212:
.LBE211:
.LBE221:
.LBE224:
	.loc 1 271 0
	sub	edx, r15d
.LVL66:
.LBB225:
.LBB222:
.LBB219:
.LBB217:
.LBB216:
.LBB215:
	.loc 1 106 0
	movsx	rdi, esi
.LBE215:
.LBE216:
.LBE217:
.LBE219:
.LBE222:
.LBE225:
	.loc 1 274 0
	mov	esi, ecx
	imul	esi, r11d
.LVL67:
.LBB226:
.LBB223:
.LBB220:
.LBB218:
	.loc 1 111 0
	movsx	rsi, esi
.LBE218:
.LBE220:
	.loc 1 130 0
	lea	rsi, [r8+rsi*4]
.LVL68:
	mov	DWORD PTR [rsi+rdi], 0
.LVL69:
.L69:
.LBE223:
.LBE226:
	.loc 1 275 0
	add	eax, 1
.LVL70:
	cmp	eax, r12d
	jg	.L46
	mov	edi, eax
	add	r15d, r15d
.LVL71:
	movsx	r13, r10d
	imul	edi, r10d
	sal	r13, 2
	add	r12d, 1
.LVL72:
	neg	r15d
	movsx	r8, edi
	sal	r8, 2
	jmp	.L47
.LVL73:
	.p2align 4,,10
	.p2align 3
.L104:
.LBB227:
	.loc 1 277 0
	mov	r9d, r11d
	imul	r9d, ecx
.LVL74:
.LBB228:
.LBB229:
.LBB230:
.LBB231:
.LBB232:
.LBB233:
	.loc 1 106 0
	imul	r9d, DWORD PTR [rsp+136]
.LVL75:
	movsx	r9, r9d
.LBE233:
.LBE232:
.LBE231:
.LBE230:
	.loc 1 130 0
	add	r9, QWORD PTR [rsp+144]
	mov	DWORD PTR [r9+r8], 0
.LVL76:
.L45:
.LBE229:
.LBE228:
	.loc 1 278 0
	add	esi, ebx
.LBE227:
	.loc 1 275 0
	add	eax, 1
.LVL77:
	add	r8, r13
.LBB250:
	.loc 1 278 0
	add	edx, esi
.LVL78:
	add	edi, r10d
.LBE250:
	.loc 1 275 0
	cmp	eax, r12d
	je	.L46
.LVL79:
.L47:
.LBB251:
	.loc 1 276 0
	xor	esi, esi
	test	edx, edx
	jle	.L43
	add	ecx, 1
.LVL80:
	mov	esi, r15d
.LVL81:
.L43:
	.loc 1 277 0
	test	ebp, ebp
	je	.L104
.LVL82:
	mov	r9d, r11d
.LBB234:
.LBB235:
.LBB236:
.LBB237:
.LBB238:
.LBB239:
	.loc 1 106 0
	mov	r14d, DWORD PTR [rsp+136]
.LBE239:
.LBE238:
.LBE237:
.LBE236:
.LBE235:
.LBE234:
	.loc 1 277 0
	imul	r9d, ecx
.LVL83:
.LBB249:
.LBB248:
.LBB246:
.LBB244:
	.loc 1 111 0
	movsx	r9, r9d
.LBB242:
.LBB240:
	.loc 1 106 0
	imul	r14d, edi
.LBE240:
.LBE242:
.LBE244:
.LBE246:
	.loc 1 130 0
	sal	r9, 2
.LVL84:
	add	r9, QWORD PTR [rsp+144]
.LBB247:
.LBB245:
.LBB243:
.LBB241:
	.loc 1 106 0
	movsx	r14, r14d
.LBE241:
.LBE243:
.LBE245:
.LBE247:
	.loc 1 130 0
	mov	DWORD PTR [r9+r14], 0
	jmp	.L45
.LVL85:
	.p2align 4,,10
	.p2align 3
.L46:
.LBE248:
.LBE249:
.LBE251:
.LBE266:
.LBE269:
.LBE274:
	.loc 1 323 0
	add	DWORD PTR [rsp+28], 1
.LVL86:
	cmp	DWORD PTR [rsp+28], 51
	je	.L105
.LBB275:
.LBB270:
	.loc 1 349 0
	vmovd	ebp, xmm6
	.loc 1 350 0
	vmovd	r13d, xmm7
	jmp	.L49
.LVL87:
	.p2align 4,,10
	.p2align 3
.L39:
.LBE270:
.LBB271:
.LBB267:
	.loc 1 274 0
	mov	esi, ecx
.LBB252:
.LBB253:
	.loc 1 130 0
	mov	r8, QWORD PTR [rsp+144]
.LBE253:
.LBE252:
	.loc 1 271 0
	add	ebx, ebx
	.loc 1 274 0
	imul	esi, r11d
	.loc 1 271 0
	mov	edx, ebx
.LVL88:
	.loc 1 172 0
	xor	ebp, ebp
.LVL89:
	.loc 1 271 0
	sub	edx, r15d
.LVL90:
.LBB262:
.LBB260:
.LBB254:
.LBB255:
.LBB256:
.LBB257:
	.loc 1 106 0
	imul	esi, DWORD PTR [rsp+136]
.LVL91:
	movsx	rdi, esi
.LBE257:
.LBE256:
.LBE255:
.LBE254:
.LBE260:
.LBE262:
	.loc 1 274 0
	mov	esi, eax
	imul	esi, r10d
.LBB263:
.LBB261:
.LBB259:
.LBB258:
	.loc 1 111 0
	movsx	rsi, esi
.LBE258:
.LBE259:
	.loc 1 130 0
	lea	rsi, [r8+rsi*4]
	mov	DWORD PTR [rsi+rdi], 0
	jmp	.L69
.LVL92:
	.p2align 4,,10
	.p2align 3
.L103:
	mov	ebx, ecx
.LVL93:
.LBE261:
.LBE263:
	.loc 1 189 0
	mov	r11d, -1
	.loc 1 190 0
	neg	ecx
.LVL94:
	sub	ebx, edx
.LVL95:
	.loc 1 191 0
	neg	edx
.LVL96:
	jmp	.L38
.LVL97:
	.p2align 4,,10
	.p2align 3
.L102:
	.loc 1 181 0
	mov	r15d, eax
.LVL98:
	.loc 1 179 0
	mov	r10d, -1
	.loc 1 180 0
	neg	eax
.LVL99:
	.loc 1 181 0
	sub	r15d, r12d
.LVL100:
	neg	r12d
.LVL101:
	jmp	.L37
.LVL102:
.L105:
	mov	r9, QWORD PTR [rsp+56]
	lea	rsi, [rsp+68]
.LVL103:
.L48:
.LBB264:
	.loc 1 276 0
	mov	edi, -2
.LVL104:
.L56:
.LBE264:
.LBE267:
.LBE271:
.LBE275:
.LBE278:
.LBE283:
.LBE288:
.LBB289:
.LBB290:
.LBB291:
	.loc 1 393 0
	mov	edx, edi
.LBE291:
.LBE290:
.LBE289:
.LBB308:
.LBB284:
.LBB279:
.LBB276:
.LBB272:
.LBB268:
.LBB265:
	.loc 1 276 0
	mov	eax, -2
.LBE265:
.LBE268:
.LBE272:
.LBE276:
.LBE279:
.LBE284:
.LBE308:
.LBB309:
.LBB306:
.LBB304:
	.loc 1 393 0
	sar	edx, 31
	mov	r8d, edx
	xor	r8d, edi
	sub	r8d, edx
.LVL105:
.L54:
	mov	ecx, eax
	sar	ecx, 31
	mov	edx, ecx
	xor	edx, eax
	sub	edx, ecx
	cmp	edx, 2
	je	.L106
.L50:
.LVL106:
	.loc 1 396 0
	mov	edx, DWORD PTR [rsi]
.LBB292:
.LBB293:
	.loc 1 130 0
	mov	r10, QWORD PTR [rsp+144]
.LBE293:
.LBE292:
	.loc 1 396 0
	add	edx, eax
.LVL107:
.LBB302:
.LBB300:
.LBB294:
.LBB295:
.LBB296:
.LBB297:
	.loc 1 106 0
	imul	edx, DWORD PTR [rsp+136]
.LVL108:
	movsx	rcx, edx
.LBE297:
.LBE296:
.LBE295:
.LBE294:
.LBE300:
.LBE302:
	.loc 1 396 0
	mov	edx, DWORD PTR [rsi-4]
	add	edx, edi
.LVL109:
.LBB303:
.LBB301:
.LBB299:
.LBB298:
	.loc 1 111 0
	movsx	rdx, edx
.LBE298:
.LBE299:
	.loc 1 130 0
	lea	rdx, [r10+rdx*4]
.LVL110:
	mov	DWORD PTR [rdx+rcx], 16711680
.LVL111:
.L51:
.LBE301:
.LBE303:
	.loc 1 392 0
	add	eax, 1
.LVL112:
	cmp	eax, 3
	jne	.L54
.LBE304:
	.loc 1 391 0
	add	edi, 1
.LVL113:
	cmp	edi, 3
	jne	.L56
.LVL114:
	add	rsi, 8
.LBE306:
	.loc 1 390 0
	cmp	rsi, r9
	jne	.L48
.LBE309:
.LBE201:
.LBE200:
	.loc 1 419 0
	mov	rdi, QWORD PTR [rsp+120]
.LVL115:
	call	SDL_UnlockTexture
.LVL116:
.LBB313:
	.loc 1 420 0
	mov	rsi, QWORD PTR [rsp+120]
	xor	ecx, ecx
	mov	rdi, QWORD PTR [rsp+104]
	xor	edx, edx
	call	SDL_RenderCopy
.LVL117:
	test	eax, eax
	js	.L107
.LBE313:
	.loc 1 421 0
	mov	rdi, QWORD PTR [rsp+104]
	call	SDL_RenderPresent
.LVL118:
	jmp	.L22
.LVL119:
	.p2align 4,,10
	.p2align 3
.L106:
.LBB314:
.LBB312:
.LBB310:
.LBB307:
.LBB305:
	.loc 1 393 0
	cmp	r8d, 2
	jne	.L50
	.p2align 4,,7
	jmp	.L51
.LVL120:
.L72:
.LBE305:
.LBE307:
.LBE310:
.LBB311:
.LBB285:
.LBB280:
.LBB277:
.LBB273:
	.loc 1 361 0
	vmovss	xmm0, DWORD PTR .LC1[rip]
.LVL121:
	jmp	.L36
.LVL122:
.L107:
.LBE273:
.LBE277:
.LBE280:
.LBE285:
.LBE311:
.LBE312:
.LBE314:
.LBB315:
	.loc 1 420 0
	call	SDL_GetError
.LVL123:
	mov	r8d, OFFSET FLAT:.LC17
	mov	ecx, OFFSET FLAT:__func__.9219
	mov	edx, OFFSET FLAT:.LC10
	mov	esi, 420
	mov	rdi, rax
	call	XERR_PushError
.LVL124:
.L28:
.LBE315:
.LBE317:
.LBE319:
	.loc 1 465 0
	mov	r8d, OFFSET FLAT:.LC22
	mov	ecx, OFFSET FLAT:__func__.9241
	mov	edx, OFFSET FLAT:.LC10
	mov	esi, 465
	xor	edi, edi
	call	XERR_PushError
.LVL125:
.L59:
.LBB320:
.LBB321:
	.loc 1 435 0
	call	XERR_CopyErrors
.LVL126:
	.loc 1 436 0
	test	rdx, rdx
	.loc 1 435 0
	mov	rbp, rax
	mov	r12, rdx
.LVL127:
	.loc 1 436 0
	je	.L108
.LVL128:
.L60:
	.loc 1 441 0
	mov	rcx, QWORD PTR stderr[rip]
	mov	edx, 53
.LVL129:
.LBB322:
	.loc 1 444 0
	xor	r14d, r14d
.LBE322:
	.loc 1 441 0
	mov	esi, 1
	mov	edi, OFFSET FLAT:.LC19
.LVL130:
	mov	rbx, r12
.LBB345:
.LBB323:
.LBB324:
.LBB325:
	.loc 1 430 0
	mov	r13d, OFFSET FLAT:.LC5
.LBE325:
.LBE324:
.LBE323:
.LBE345:
	.loc 1 441 0
	call	fwrite
.LVL131:
.LBB346:
	.loc 1 444 0
	test	rbp, rbp
	jne	.L88
.LVL132:
	jmp	.L67
.LVL133:
	.p2align 4,,10
	.p2align 3
.L109:
.LBB342:
.LBB328:
.LBB326:
	.loc 1 430 0
	cmp	BYTE PTR [rax], 0
	cmove	rax, r13
.LVL134:
	mov	rsi, rax
.L63:
.LBE326:
.LBE328:
	.loc 1 450 0
	mov	rdx, QWORD PTR [rbx+8]
.LVL135:
.LBB329:
.LBB330:
	.loc 1 430 0
	mov	eax, OFFSET FLAT:.LC6
	test	rdx, rdx
	je	.L64
	cmp	BYTE PTR [rdx], 0
	cmovne	rax, rdx
.L64:
.LBE330:
.LBE329:
	.loc 1 449 0
	mov	rdx, QWORD PTR [rbx+40]
.LVL136:
.LBB331:
.LBB332:
	.loc 1 430 0
	mov	r9d, OFFSET FLAT:.LC7
	test	rdx, rdx
	je	.L65
	cmp	BYTE PTR [rdx], 0
	cmovne	r9, rdx
.L65:
.LBE332:
.LBE331:
	.loc 1 447 0
	mov	rdx, QWORD PTR [rbx+24]
.LVL137:
.LBB333:
.LBB334:
	.loc 1 430 0
	mov	ecx, OFFSET FLAT:.LC8
.LBE334:
.LBE333:
	.loc 1 446 0
	mov	r8d, DWORD PTR [rbx]
.LBB336:
.LBB335:
	.loc 1 430 0
	test	rdx, rdx
	je	.L66
	cmp	BYTE PTR [rdx], 0
	cmovne	rcx, rdx
.L66:
.LVL138:
.LBE335:
.LBE336:
.LBB337:
.LBB338:
	.file 2 "/usr/include/x86_64-linux-gnu/bits/stdio2.h"
	.loc 2 97 0
	mov	rdi, QWORD PTR stderr[rip]
	mov	QWORD PTR [rsp+8], rsi
.LVL139:
.LBE338:
.LBE337:
.LBE342:
	.loc 1 444 0
	add	r14, 1
.LVL140:
.LBB343:
.LBB340:
.LBB339:
	.loc 2 97 0
	mov	QWORD PTR [rsp], rax
	mov	edx, OFFSET FLAT:.LC20
.LVL141:
	xor	eax, eax
	mov	esi, 1
	add	rbx, 72
.LVL142:
	call	__fprintf_chk
.LVL143:
.LBE339:
.LBE340:
.LBE343:
	.loc 1 444 0
	cmp	r14, rbp
	je	.L67
.LVL144:
.L88:
.LBB344:
	.loc 1 451 0
	mov	rax, QWORD PTR [rbx+56]
.LVL145:
.LBB341:
.LBB327:
	.loc 1 430 0
	test	rax, rax
	jne	.L109
	mov	esi, OFFSET FLAT:.LC5
	jmp	.L63
.LVL146:
.L67:
.LBE327:
.LBE341:
.LBE344:
.LBE346:
	.loc 1 453 0
	mov	rdi, rbp
	mov	rsi, r12
	call	XERR_FreeErrors
.LVL147:
	.loc 1 454 0
	call	XERR_ClearInternalSequence
.LVL148:
.LBE321:
.LBE320:
	.loc 1 471 0
	lea	rdi, [rsp+96]
.LVL149:
	call	Cleanup
.LVL150:
	.loc 1 472 0
	mov	eax, 1
	jmp	.L62
.LVL151:
.L25:
.LBB348:
.LBB318:
.LBB316:
	.loc 1 415 0
	call	SDL_GetError
.LVL152:
	mov	r8d, OFFSET FLAT:.LC15
	mov	ecx, OFFSET FLAT:__func__.9219
	mov	edx, OFFSET FLAT:.LC10
	mov	esi, 416
	mov	rdi, rax
	call	XERR_PushError
.LVL153:
	jmp	.L28
.LVL154:
.L95:
.LBE316:
.LBE318:
.LBE348:
.LBB349:
.LBB183:
.LBB182:
	.loc 1 69 0
	call	SDL_GetError
.LVL155:
	mov	r8d, OFFSET FLAT:.LC9
	mov	ecx, OFFSET FLAT:__func__.9094
	mov	edx, OFFSET FLAT:.LC10
	mov	esi, 69
	mov	rdi, rax
	call	XERR_PushError
.LVL156:
.L18:
.LBE182:
.LBE183:
.LBE349:
	.loc 1 464 0
	mov	r8d, OFFSET FLAT:.LC21
	mov	ecx, OFFSET FLAT:__func__.9241
	mov	edx, OFFSET FLAT:.LC10
	mov	esi, 464
	xor	edi, edi
	call	XERR_PushError
.LVL157:
	jmp	.L59
.LVL158:
.L96:
.LBB350:
.LBB184:
	.loc 1 74 0
	call	SDL_GetError
.LVL159:
	mov	r8d, OFFSET FLAT:.LC12
	mov	ecx, OFFSET FLAT:__func__.9094
	mov	edx, OFFSET FLAT:.LC10
	mov	esi, 74
	mov	rdi, rax
	call	XERR_PushError
.LVL160:
	jmp	.L18
.LVL161:
.L108:
.LBE184:
.LBE350:
.LBB351:
.LBB347:
	.loc 1 437 0
	mov	edx, 32
.LVL162:
	mov	esi, 1
	mov	edi, OFFSET FLAT:.LC18
	mov	rcx, QWORD PTR stderr[rip]
	call	fwrite
.LVL163:
	jmp	.L60
.LVL164:
.L100:
.LBE347:
.LBE351:
	.loc 1 473 0
	call	__stack_chk_fail
.LVL165:
.L98:
.LBB352:
.LBB185:
	.loc 1 87 0
	.p2align 4,,8
	call	SDL_GetError
.LVL166:
	mov	r8d, OFFSET FLAT:.LC14
	mov	ecx, OFFSET FLAT:__func__.9094
	mov	edx, OFFSET FLAT:.LC10
	mov	esi, 87
	mov	rdi, rax
	call	XERR_PushError
.LVL167:
	jmp	.L18
.LVL168:
.L97:
	.loc 1 81 0
	call	SDL_GetError
.LVL169:
	mov	r8d, OFFSET FLAT:.LC13
	mov	ecx, OFFSET FLAT:__func__.9094
	mov	edx, OFFSET FLAT:.LC10
	mov	esi, 81
	mov	rdi, rax
	call	XERR_PushError
.LVL170:
	jmp	.L18
.LBE185:
.LBE352:
	.cfi_endproc
.LFE583:
	.size	main, .-main
	.section	.rodata
	.type	__func__.9219, @object
	.size	__func__.9219, 9
__func__.9219:
	.string	"DrawLoop"
	.type	__func__.9094, @object
	.size	__func__.9094, 5
__func__.9094:
	.string	"Init"
	.type	__func__.9241, @object
	.size	__func__.9241, 5
__func__.9241:
	.string	"main"
	.section	.rodata.cst4,"aM",@progbits,4
	.align 4
.LC1:
	.long	1065353216
	.align 4
.LC2:
	.long	1077936128
	.align 4
.LC3:
	.long	1086324736
	.align 4
.LC16:
	.long	1017370378
	.text
.Letext0:
	.file 3 "/usr/lib/gcc/x86_64-linux-gnu/4.8/include/stddef.h"
	.file 4 "/usr/include/x86_64-linux-gnu/bits/types.h"
	.file 5 "/usr/include/stdio.h"
	.file 6 "/usr/include/libio.h"
	.file 7 "/usr/include/x86_64-linux-gnu/sys/types.h"
	.file 8 "/usr/include/stdint.h"
	.file 9 "/usr/include/SDL2/SDL_stdinc.h"
	.file 10 "/usr/include/SDL2/SDL_pixels.h"
	.file 11 "/usr/include/SDL2/SDL_rect.h"
	.file 12 "/usr/include/SDL2/SDL_video.h"
	.file 13 "/usr/include/SDL2/SDL_scancode.h"
	.file 14 "/usr/include/SDL2/SDL_keycode.h"
	.file 15 "/usr/include/SDL2/SDL_keyboard.h"
	.file 16 "/usr/include/SDL2/SDL_joystick.h"
	.file 17 "/usr/include/SDL2/SDL_touch.h"
	.file 18 "/usr/include/SDL2/SDL_gesture.h"
	.file 19 "/usr/include/SDL2/SDL_events.h"
	.file 20 "/usr/include/SDL2/SDL_render.h"
	.file 21 "../XError.h"
	.file 22 "/usr/include/SDL2/SDL.h"
	.file 23 "/usr/include/x86_64-linux-gnu/bits/mathcalls.h"
	.file 24 "/usr/include/SDL2/SDL_error.h"
	.file 25 "<built-in>"
	.section	.note.GNU-stack,"",@progbits
