	.file	"XError.c"
	.intel_syntax noprefix
	.text
.Ltext0:
	.p2align 4,,15
	.type	SetString.part.1, @function
SetString.part.1:
.LFB51:
	.file 1 "../XError.c"
	.loc 1 13 0
	.cfi_startproc
.LVL0:
	push	r12
	.cfi_def_cfa_offset 16
	.cfi_offset 12, -16
	mov	r12, rsi
	push	rbp
	.cfi_def_cfa_offset 24
	.cfi_offset 6, -24
	push	rbx
	.cfi_def_cfa_offset 32
	.cfi_offset 3, -32
	.loc 1 13 0
	mov	rbx, rdi
.LBB35:
	.loc 1 15 0
	mov	rdi, rsi
.LVL1:
	call	strlen
.LVL2:
	.loc 1 16 0
	mov	rdi, QWORD PTR [rbx]
	.loc 1 15 0
	mov	rbp, rax
.LVL3:
	.loc 1 16 0
	call	free
.LVL4:
	.loc 1 17 0
	lea	rdi, [rbp+1]
	call	malloc
.LVL5:
	.loc 1 18 0
	test	rax, rax
	.loc 1 17 0
	mov	QWORD PTR [rbx], rax
	.loc 1 18 0
	je	.L7
.LVL6:
.LBB36:
.LBB37:
	.file 2 "/usr/include/x86_64-linux-gnu/bits/string3.h"
	.loc 2 104 0
	mov	rsi, r12
	mov	rdi, rax
	call	strcpy
.LVL7:
.LBE37:
.LBE36:
	.loc 1 23 0
	mov	DWORD PTR [rbx+8], ebp
.LBE35:
	.loc 1 29 0
	xor	eax, eax
.LVL8:
.L4:
	.loc 1 30 0
	pop	rbx
	.cfi_remember_state
	.cfi_def_cfa_offset 24
.LVL9:
	pop	rbp
	.cfi_def_cfa_offset 16
.LVL10:
	pop	r12
	.cfi_def_cfa_offset 8
.LVL11:
	ret
.LVL12:
	.p2align 4,,10
	.p2align 3
.L7:
	.cfi_restore_state
.LBB38:
	.loc 1 19 0
	mov	DWORD PTR [rbx+8], -1
	.loc 1 20 0
	mov	eax, -1
	jmp	.L4
.LBE38:
	.cfi_endproc
.LFE51:
	.size	SetString.part.1, .-SetString.part.1
	.section	.rodata.str1.1,"aMS",@progbits,1
.LC0:
	.string	"%s: %s: %d: %s\n\t%s\n"
	.text
	.p2align 4,,15
	.globl	XERR_PushError
	.type	XERR_PushError, @function
XERR_PushError:
.LFB45:
	.loc 1 57 0
	.cfi_startproc
.LVL13:
	push	r15
	.cfi_def_cfa_offset 16
	.cfi_offset 15, -16
	mov	r15d, esi
	push	r14
	.cfi_def_cfa_offset 24
	.cfi_offset 14, -24
	mov	r14, r8
	push	r13
	.cfi_def_cfa_offset 32
	.cfi_offset 13, -32
	mov	r13, rcx
	push	r12
	.cfi_def_cfa_offset 40
	.cfi_offset 12, -40
	mov	r12, rdx
	push	rbp
	.cfi_def_cfa_offset 48
	.cfi_offset 6, -48
	mov	rbp, rdi
	push	rbx
	.cfi_def_cfa_offset 56
	.cfi_offset 3, -56
	sub	rsp, 40
	.cfi_def_cfa_offset 96
	.loc 1 58 0
	mov	rbx, QWORD PTR err_seq[rip]
	mov	rax, QWORD PTR err_seq[rip+8]
	cmp	rbx, QWORD PTR stack_cap[rip]
	je	.L33
.LVL14:
.L10:
	.loc 1 74 0
	lea	rdx, [rbx+rbx*8]
.LBB52:
.LBB53:
.LBB54:
.LBB55:
	.loc 1 14 0
	test	rbp, rbp
.LBE55:
.LBE54:
.LBE53:
.LBE52:
	.loc 1 74 0
	lea	rbx, [rax+rdx*8]
.LVL15:
.LBB86:
.LBB82:
	.loc 1 40 0
	mov	DWORD PTR [rbx], r15d
	.loc 1 41 0
	mov	QWORD PTR [rbx+8], 0
	.loc 1 42 0
	mov	QWORD PTR [rbx+24], 0
	.loc 1 43 0
	mov	QWORD PTR [rbx+40], 0
	.loc 1 44 0
	mov	QWORD PTR [rbx+56], 0
.LVL16:
.LBB59:
.LBB56:
	.loc 1 14 0
	je	.L14
.LBE56:
.LBE59:
	.loc 1 45 0
	lea	rdi, [rbx+8]
.LVL17:
.LBB60:
.LBB57:
	mov	rsi, rbp
	call	SetString.part.1
.LVL18:
.L15:
.LBE57:
.LBE60:
.LBB61:
.LBB62:
	.loc 1 14 0
	test	r12, r12
	je	.L16
.LBE62:
.LBE61:
	.loc 1 46 0
	lea	rdi, [rbx+24]
.LVL19:
.LBB65:
.LBB63:
	mov	rsi, r12
	call	SetString.part.1
.LVL20:
.L17:
.LBE63:
.LBE65:
.LBB66:
.LBB67:
	.loc 1 14 0
	test	r13, r13
	je	.L18
.LBE67:
.LBE66:
	.loc 1 47 0
	lea	rdi, [rbx+40]
.LVL21:
.LBB70:
.LBB68:
	mov	rsi, r13
	call	SetString.part.1
.LVL22:
.L19:
.LBE68:
.LBE70:
.LBB71:
.LBB72:
	.loc 1 14 0
	test	r14, r14
	je	.L20
.LBE72:
.LBE71:
	.loc 1 48 0
	lea	rdi, [rbx+56]
.LVL23:
.LBB76:
.LBB73:
	mov	rsi, r14
	call	SetString.part.1
.LVL24:
.LBE73:
.LBE76:
.LBE82:
.LBE86:
	.loc 1 76 0
	add	QWORD PTR err_seq[rip], 1
	.loc 1 77 0
	cmp	QWORD PTR [rbx+8], 0
	je	.L34
.L22:
	.loc 1 78 0
	cmp	QWORD PTR [rbx+24], 0
	je	.L35
.L24:
	.loc 1 79 0
	cmp	QWORD PTR [rbx+40], 0
	je	.L36
.L25:
	.loc 1 84 0
	xor	eax, eax
	.loc 1 80 0
	cmp	QWORD PTR [rbx+56], 0
	je	.L37
.LVL25:
.L31:
	.loc 1 85 0
	add	rsp, 40
	.cfi_remember_state
	.cfi_def_cfa_offset 56
	pop	rbx
	.cfi_def_cfa_offset 48
	pop	rbp
	.cfi_def_cfa_offset 40
.LVL26:
	pop	r12
	.cfi_def_cfa_offset 32
.LVL27:
	pop	r13
	.cfi_def_cfa_offset 24
.LVL28:
	pop	r14
	.cfi_def_cfa_offset 16
.LVL29:
	pop	r15
	.cfi_def_cfa_offset 8
.LVL30:
	ret
.LVL31:
	.p2align 4,,10
	.p2align 3
.L33:
	.cfi_restore_state
.LBB87:
	.loc 1 59 0
	movabs	rdx, -3689348814741910323
.LVL32:
	mov	rax, rbx
	mul	rdx
	shr	rdx, 2
	add	rdx, 30
.LVL33:
	.loc 1 60 0
	mov	rax, rdx
	not	rax
	cmp	rbx, rax
	ja	.L13
	.loc 1 64 0
	movabs	rax, 256204778801521550
	.loc 1 63 0
	add	rdx, rbx
.LVL34:
	.loc 1 64 0
	cmp	rdx, rax
	ja	.L13
	.loc 1 67 0
	mov	rdi, QWORD PTR err_seq[rip+8]
.LVL35:
	lea	rsi, [rdx+rdx*8]
.LVL36:
	mov	QWORD PTR [rsp+24], rdx
	sal	rsi, 3
	call	realloc
.LVL37:
	.loc 1 68 0
	test	rax, rax
	je	.L13
	.loc 1 72 0
	mov	rdx, QWORD PTR [rsp+24]
	.loc 1 71 0
	mov	QWORD PTR err_seq[rip+8], rax
	.loc 1 72 0
	mov	QWORD PTR stack_cap[rip], rdx
	jmp	.L10
.LVL38:
	.p2align 4,,10
	.p2align 3
.L20:
.LBE87:
	.loc 1 76 0
	add	QWORD PTR err_seq[rip], 1
.LBB88:
.LBB83:
.LBB77:
.LBB74:
	.loc 1 26 0
	mov	QWORD PTR [rbx+56], 0
.LBE74:
.LBE77:
.LBE83:
.LBE88:
	.loc 1 77 0
	cmp	QWORD PTR [rbx+8], 0
.LBB89:
.LBB84:
.LBB78:
.LBB75:
	.loc 1 27 0
	mov	DWORD PTR [rbx+64], -1
.LBE75:
.LBE78:
.LBE84:
.LBE89:
	.loc 1 77 0
	jne	.L22
.L34:
	.loc 1 77 0 is_stmt 0 discriminator 1
	test	rbp, rbp
	jne	.L23
	jmp	.L22
.LVL39:
	.p2align 4,,10
	.p2align 3
.L18:
.LBB90:
.LBB85:
.LBB79:
.LBB69:
	.loc 1 26 0 is_stmt 1
	mov	QWORD PTR [rbx+40], 0
	.loc 1 27 0
	mov	DWORD PTR [rbx+48], -1
	jmp	.L19
.LVL40:
	.p2align 4,,10
	.p2align 3
.L16:
.LBE69:
.LBE79:
.LBB80:
.LBB64:
	.loc 1 26 0
	mov	QWORD PTR [rbx+24], 0
	.loc 1 27 0
	mov	DWORD PTR [rbx+32], -1
	jmp	.L17
.LVL41:
	.p2align 4,,10
	.p2align 3
.L14:
.LBE64:
.LBE80:
.LBB81:
.LBB58:
	mov	DWORD PTR [rbx+16], -1
	jmp	.L15
.LVL42:
	.p2align 4,,10
	.p2align 3
.L37:
.LBE58:
.LBE81:
.LBE85:
.LBE90:
	.loc 1 80 0 discriminator 1
	test	r14, r14
	je	.L31
.L23:
.LVL43:
.LBB91:
.LBB92:
	.file 3 "/usr/include/x86_64-linux-gnu/bits/stdio2.h"
	.loc 3 97 0
	mov	rdi, QWORD PTR stderr[rip]
	mov	QWORD PTR [rsp+8], r14
	mov	r9d, r15d
	mov	QWORD PTR [rsp], rbp
	mov	r8, r13
	mov	rcx, r12
	mov	edx, OFFSET FLAT:.LC0
	mov	esi, 1
	xor	eax, eax
	call	__fprintf_chk
.LVL44:
.LBE92:
.LBE91:
	.loc 1 85 0
	add	rsp, 40
	.cfi_remember_state
	.cfi_def_cfa_offset 56
	.loc 1 84 0
	xor	eax, eax
	.loc 1 85 0
	pop	rbx
	.cfi_def_cfa_offset 48
.LVL45:
	pop	rbp
	.cfi_def_cfa_offset 40
.LVL46:
	pop	r12
	.cfi_def_cfa_offset 32
.LVL47:
	pop	r13
	.cfi_def_cfa_offset 24
.LVL48:
	pop	r14
	.cfi_def_cfa_offset 16
.LVL49:
	pop	r15
	.cfi_def_cfa_offset 8
.LVL50:
	ret
.LVL51:
	.p2align 4,,10
	.p2align 3
.L35:
	.cfi_restore_state
	.loc 1 78 0 discriminator 1
	test	r12, r12
	jne	.L23
	jmp	.L24
	.p2align 4,,10
	.p2align 3
.L36:
	.loc 1 79 0 discriminator 1
	test	r13, r13
	jne	.L23
	.p2align 4,,8
	jmp	.L25
.LVL52:
	.p2align 4,,10
	.p2align 3
.L13:
.LBB93:
	.loc 1 61 0
	mov	eax, -1
	jmp	.L31
.LBE93:
	.cfi_endproc
.LFE45:
	.size	XERR_PushError, .-XERR_PushError
	.p2align 4,,15
	.globl	XERR_CopyErrors
	.type	XERR_CopyErrors, @function
XERR_CopyErrors:
.LFB47:
	.loc 1 108 0
	.cfi_startproc
.LVL53:
	push	r15
	.cfi_def_cfa_offset 16
	.cfi_offset 15, -16
	push	r14
	.cfi_def_cfa_offset 24
	.cfi_offset 14, -24
	push	r13
	.cfi_def_cfa_offset 32
	.cfi_offset 13, -32
	push	r12
	.cfi_def_cfa_offset 40
	.cfi_offset 12, -40
	push	rbp
	.cfi_def_cfa_offset 48
	.cfi_offset 6, -48
	push	rbx
	.cfi_def_cfa_offset 56
	.cfi_offset 3, -56
	sub	rsp, 40
	.cfi_def_cfa_offset 96
.LBB122:
	.loc 1 113 0
	mov	rax, QWORD PTR err_seq[rip]
	test	rax, rax
	mov	rbx, rax
	mov	QWORD PTR [rsp+16], rax
	je	.L55
	mov	rax, QWORD PTR err_seq[rip+8]
	lea	rdx, [rbx+rbx*8]
.LBE122:
	.loc 1 112 0
	xor	ebx, ebx
	lea	rsi, [rax+rdx*8]
.LVL54:
	.p2align 4,,10
	.p2align 3
.L40:
.LBB124:
.LBB123:
	.loc 1 116 0 discriminator 2
	mov	edi, DWORD PTR [rax+32]
	add	rax, 72
.LVL55:
	lea	ecx, [rdi+1]
	.loc 1 115 0 discriminator 2
	mov	edi, DWORD PTR [rax-56]
	.loc 1 116 0 discriminator 2
	movsx	rcx, ecx
	.loc 1 115 0 discriminator 2
	lea	edx, [rdi+1]
	.loc 1 117 0 discriminator 2
	mov	edi, DWORD PTR [rax-24]
	.loc 1 115 0 discriminator 2
	movsx	rdx, edx
	add	rdx, rcx
	.loc 1 117 0 discriminator 2
	lea	ecx, [rdi+1]
	.loc 1 118 0 discriminator 2
	mov	edi, DWORD PTR [rax-8]
	.loc 1 117 0 discriminator 2
	movsx	rcx, ecx
	.loc 1 116 0 discriminator 2
	add	rdx, rcx
	.loc 1 118 0 discriminator 2
	lea	ecx, [rdi+1]
	movsx	rcx, ecx
	.loc 1 117 0 discriminator 2
	add	rdx, rcx
	.loc 1 118 0 discriminator 2
	add	rbx, rdx
.LVL56:
.LBE123:
	.loc 1 113 0 discriminator 2
	cmp	rax, rsi
	jne	.L40
.LVL57:
.L39:
.LBE124:
	.loc 1 122 0
	mov	rax, QWORD PTR [rsp+16]
	lea	rdi, [rax+rax*8]
	sal	rdi, 3
	call	malloc
.LVL58:
	.loc 1 123 0
	test	rax, rax
	.loc 1 122 0
	mov	QWORD PTR [rsp+24], rax
.LVL59:
	.loc 1 123 0
	je	.L58
	.loc 1 128 0
	mov	rdi, rbx
	call	malloc
.LVL60:
	.loc 1 129 0
	test	rax, rax
	.loc 1 128 0
	mov	rcx, rax
.LVL61:
	.loc 1 129 0
	je	.L43
.LVL62:
.LBB125:
	.loc 1 142 0 discriminator 1
	cmp	QWORD PTR [rsp+16], 0
	je	.L53
	.loc 1 142 0 is_stmt 0
	mov	QWORD PTR [rsp+8], 0
	mov	rax, QWORD PTR [rsp+24]
.LVL63:
	xor	ebx, ebx
	lea	r14, [rax+56]
	lea	r13, [rax+40]
	lea	r12, [rax+24]
	lea	rbp, [rax+8]
	jmp	.L54
.LVL64:
	.p2align 4,,10
	.p2align 3
.L59:
.LBB126:
.LBB127:
.LBB128:
.LBB129:
.LBB130:
	.loc 1 96 0 is_stmt 1
	mov	QWORD PTR [rbp+0], rcx
.LVL65:
.LBB131:
.LBB132:
	.loc 2 104 0
	mov	rdi, rcx
	mov	rsi, QWORD PTR [r15+8]
.LVL66:
	call	strcpy
.LVL67:
	mov	rcx, rax
.LBE132:
.LBE131:
	.loc 1 98 0
	movsx	rax, DWORD PTR [r15+16]
	mov	DWORD PTR [rbp+8], eax
	.loc 1 99 0
	lea	rcx, [rcx+1+rax]
.LVL68:
.LBE130:
.LBE129:
.LBE128:
.LBE127:
.LBB134:
.LBB135:
	.loc 1 94 0
	cmp	QWORD PTR [r15+24], 0
	je	.L47
.LVL69:
.L60:
.LBB136:
.LBB137:
	.loc 1 96 0
	mov	QWORD PTR [r12], rcx
.LVL70:
.LBB138:
.LBB139:
	.loc 2 104 0
	mov	rdi, rcx
	mov	rsi, QWORD PTR [r15+24]
	call	strcpy
.LVL71:
	mov	rcx, rax
.LBE139:
.LBE138:
	.loc 1 98 0
	movsx	rax, DWORD PTR [r15+32]
	mov	DWORD PTR [r12+8], eax
	.loc 1 99 0
	lea	rcx, [rcx+1+rax]
.LVL72:
.LBE137:
.LBE136:
.LBE135:
.LBE134:
.LBB141:
.LBB142:
	.loc 1 94 0
	cmp	QWORD PTR [r15+40], 0
	je	.L49
.LVL73:
.L61:
.LBB143:
.LBB144:
	.loc 1 96 0
	mov	QWORD PTR [r13+0], rcx
.LVL74:
.LBB145:
.LBB146:
	.loc 2 104 0
	mov	rdi, rcx
	mov	rsi, QWORD PTR [r15+40]
	call	strcpy
.LVL75:
	mov	rcx, rax
.LBE146:
.LBE145:
	.loc 1 98 0
	movsx	rax, DWORD PTR [r15+48]
	mov	DWORD PTR [r13+8], eax
	.loc 1 99 0
	lea	rcx, [rcx+1+rax]
.LVL76:
.LBE144:
.LBE143:
.LBE142:
.LBE141:
.LBB148:
.LBB149:
	.loc 1 94 0
	cmp	QWORD PTR [r15+56], 0
	je	.L51
.LVL77:
.L62:
.LBB150:
.LBB151:
	.loc 1 96 0
	mov	QWORD PTR [r14], rcx
.LVL78:
.LBB152:
.LBB153:
	.loc 2 104 0
	mov	rdi, rcx
	mov	rsi, QWORD PTR [r15+56]
	call	strcpy
.LVL79:
	mov	rcx, rax
.LBE153:
.LBE152:
	.loc 1 98 0
	movsx	rax, DWORD PTR [r15+64]
	mov	DWORD PTR [r14+8], eax
	.loc 1 99 0
	lea	rcx, [rcx+1+rax]
.LVL80:
.L52:
.LBE151:
.LBE150:
.LBE149:
.LBE148:
.LBE126:
	.loc 1 142 0 discriminator 2
	add	QWORD PTR [rsp+8], 1
.LVL81:
	add	rbx, 72
.LVL82:
	add	r14, 72
	mov	rax, QWORD PTR [rsp+16]
	add	r13, 72
	add	r12, 72
	add	rbp, 72
	cmp	QWORD PTR [rsp+8], rax
	je	.L53
.LVL83:
.L54:
.LBB159:
	.loc 1 143 0 discriminator 2
	mov	r15, rbx
	.loc 1 145 0 discriminator 2
	mov	rsi, QWORD PTR [rsp+24]
	.loc 1 143 0 discriminator 2
	add	r15, QWORD PTR err_seq[rip+8]
.LVL84:
	.loc 1 145 0 discriminator 2
	mov	eax, DWORD PTR [r15]
	mov	DWORD PTR [rsi+rbx], eax
.LVL85:
.LBB155:
.LBB133:
	.loc 1 94 0 discriminator 2
	cmp	QWORD PTR [r15+8], 0
	jne	.L59
	.loc 1 102 0
	mov	QWORD PTR [rbp+0], 0
	.loc 1 103 0
	mov	DWORD PTR [rbp+8], -1
.LVL86:
.LBE133:
.LBE155:
.LBB156:
.LBB140:
	.loc 1 94 0
	cmp	QWORD PTR [r15+24], 0
	jne	.L60
.LVL87:
.L47:
	.loc 1 102 0
	mov	QWORD PTR [r12], 0
	.loc 1 103 0
	mov	DWORD PTR [r12+8], -1
.LVL88:
.LBE140:
.LBE156:
.LBB157:
.LBB147:
	.loc 1 94 0
	cmp	QWORD PTR [r15+40], 0
	jne	.L61
.LVL89:
.L49:
	.loc 1 102 0
	mov	QWORD PTR [r13+0], 0
	.loc 1 103 0
	mov	DWORD PTR [r13+8], -1
.LVL90:
.LBE147:
.LBE157:
.LBB158:
.LBB154:
	.loc 1 94 0
	cmp	QWORD PTR [r15+56], 0
	jne	.L62
.LVL91:
.L51:
	.loc 1 102 0
	mov	QWORD PTR [r14], 0
	.loc 1 103 0
	mov	DWORD PTR [r14+8], -1
	jmp	.L52
.LVL92:
	.p2align 4,,10
	.p2align 3
.L53:
.LBE154:
.LBE158:
.LBE159:
.LBE125:
	.loc 1 152 0
	mov	rax, QWORD PTR [rsp+16]
	mov	rdx, QWORD PTR [rsp+24]
	.loc 1 153 0
	add	rsp, 40
	.cfi_remember_state
	.cfi_def_cfa_offset 56
	pop	rbx
	.cfi_def_cfa_offset 48
	pop	rbp
	.cfi_def_cfa_offset 40
	pop	r12
	.cfi_def_cfa_offset 32
	pop	r13
	.cfi_def_cfa_offset 24
	pop	r14
	.cfi_def_cfa_offset 16
	pop	r15
	.cfi_def_cfa_offset 8
	ret
.LVL93:
.L43:
	.cfi_restore_state
	.loc 1 130 0
	mov	rdi, QWORD PTR [rsp+24]
	call	free
.LVL94:
	.loc 1 132 0
	xor	eax, eax
.LVL95:
	.p2align 4,,10
	.p2align 3
.L58:
	.loc 1 153 0
	add	rsp, 40
	.cfi_remember_state
	.cfi_def_cfa_offset 56
	.loc 1 132 0
	xor	edx, edx
	.loc 1 153 0
	pop	rbx
	.cfi_def_cfa_offset 48
	pop	rbp
	.cfi_def_cfa_offset 40
	pop	r12
	.cfi_def_cfa_offset 32
	pop	r13
	.cfi_def_cfa_offset 24
	pop	r14
	.cfi_def_cfa_offset 16
	pop	r15
	.cfi_def_cfa_offset 8
	ret
.LVL96:
.L55:
	.cfi_restore_state
	.loc 1 112 0
	xor	ebx, ebx
	jmp	.L39
	.cfi_endproc
.LFE47:
	.size	XERR_CopyErrors, .-XERR_CopyErrors
	.p2align 4,,15
	.globl	XERR_FreeErrors
	.type	XERR_FreeErrors, @function
XERR_FreeErrors:
.LFB48:
	.loc 1 156 0
	.cfi_startproc
.LVL97:
	.loc 1 157 0
	test	rsi, rsi
	.loc 1 156 0
	push	rbx
	.cfi_def_cfa_offset 16
	.cfi_offset 3, -16
	.loc 1 156 0
	mov	rbx, rsi
	.loc 1 157 0
	je	.L65
	.loc 1 158 0
	mov	rdi, QWORD PTR [rsi+8]
	call	free
.LVL98:
	.loc 1 159 0
	mov	rdi, rbx
	.loc 1 161 0
	pop	rbx
	.cfi_remember_state
	.cfi_def_cfa_offset 8
.LVL99:
	.loc 1 159 0
	jmp	free
.LVL100:
	.p2align 4,,10
	.p2align 3
.L65:
	.cfi_restore_state
	.loc 1 161 0
	pop	rbx
	.cfi_def_cfa_offset 8
.LVL101:
	ret
	.cfi_endproc
.LFE48:
	.size	XERR_FreeErrors, .-XERR_FreeErrors
	.p2align 4,,15
	.globl	XERR_ClearInternalSequence
	.type	XERR_ClearInternalSequence, @function
XERR_ClearInternalSequence:
.LFB49:
	.loc 1 164 0
	.cfi_startproc
.LVL102:
	push	r12
	.cfi_def_cfa_offset 16
	.cfi_offset 12, -16
.LBB160:
	.loc 1 165 0
	mov	r12, QWORD PTR err_seq[rip]
.LBE160:
	.loc 1 164 0
	push	rbp
	.cfi_def_cfa_offset 24
	.cfi_offset 6, -24
.LBB161:
	.loc 1 165 0
	xor	ebp, ebp
.LBE161:
	.loc 1 164 0
	push	rbx
	.cfi_def_cfa_offset 32
	.cfi_offset 3, -32
	mov	rbx, QWORD PTR err_seq[rip+8]
.LBB162:
	.loc 1 165 0
	test	r12, r12
	je	.L69
.LVL103:
	.p2align 4,,10
	.p2align 3
.L71:
	.loc 1 166 0 discriminator 2
	mov	rdi, QWORD PTR [rbx+8]
	.loc 1 165 0 discriminator 2
	add	rbp, 1
.LVL104:
	add	rbx, 72
	.loc 1 166 0 discriminator 2
	call	free
.LVL105:
	.loc 1 167 0 discriminator 2
	mov	rdi, QWORD PTR [rbx-48]
	call	free
.LVL106:
	.loc 1 168 0 discriminator 2
	mov	rdi, QWORD PTR [rbx-32]
	call	free
.LVL107:
	.loc 1 169 0 discriminator 2
	mov	rdi, QWORD PTR [rbx-16]
	call	free
.LVL108:
	.loc 1 165 0 discriminator 2
	cmp	rbp, r12
	jne	.L71
.LVL109:
.L69:
.LBE162:
	.loc 1 171 0
	mov	QWORD PTR err_seq[rip], 0
	.loc 1 172 0
	pop	rbx
	.cfi_def_cfa_offset 24
	pop	rbp
	.cfi_def_cfa_offset 16
	pop	r12
	.cfi_def_cfa_offset 8
	ret
	.cfi_endproc
.LFE49:
	.size	XERR_ClearInternalSequence, .-XERR_ClearInternalSequence
	.local	stack_cap
	.comm	stack_cap,8,8
	.local	err_seq
	.comm	err_seq,16,16
.Letext0:
	.file 4 "/usr/lib/gcc/x86_64-linux-gnu/4.8/include/stddef.h"
	.file 5 "/usr/include/x86_64-linux-gnu/bits/types.h"
	.file 6 "/usr/include/stdio.h"
	.file 7 "/usr/include/libio.h"
	.file 8 "../XError.h"
	.file 9 "<built-in>"
	.file 10 "/usr/include/string.h"
	.file 11 "/usr/include/stdlib.h"
	.section	.note.GNU-stack,"",@progbits
